; Function Attrs: mustprogress uwtable
define void @_ZNK5folly6detail21BenchmarkingStateBase24runBenchmarksWithResultsEv(ptr dead_on_unwind noalias writable writeonly sret(%"class.std::vector.27") align 8 captures(none) initializes((0, 24)) %0, ptr noundef nonnull align 8 dereferenceable(72) %1) local_unnamed_addr #1 align 2 personality ptr @__gxx_personality_v0 {
  %3 = alloca %"struct.std::pair.340", align 8
  call void @llvm.lifetime.start.p0(i64 72, ptr nonnull %3) #41
  call fastcc void @_ZNK5folly6detail21BenchmarkingStateBase24runBenchmarksWithPrinterINS_12_GLOBAL__N_123BenchmarkResultsPrinterEEESt4pairISt3setINSt7__cxx1112basic_stringIcSt11char_traitsIcESaIcEEESt4lessISC_ESaISC_EESt6vectorINS0_15BenchmarkResultESaISI_EEEPT_(ptr dead_on_unwind noalias writable align 8 %3, ptr noundef nonnull align 8 dereferenceable(72) %1, ptr noundef null)
  %4 = getelementptr inbounds nuw i8, ptr %3, i64 48
  %5 = load ptr, ptr %4, align 8, !tbaa !136
  store ptr %5, ptr %0, align 8, !tbaa !136
  %6 = getelementptr inbounds nuw i8, ptr %0, i64 8
  %7 = getelementptr inbounds nuw i8, ptr %3, i64 56
  %8 = load ptr, ptr %7, align 8, !tbaa !126
  store ptr %8, ptr %6, align 8, !tbaa !126
  %9 = getelementptr inbounds nuw i8, ptr %0, i64 16
  %10 = getelementptr inbounds nuw i8, ptr %3, i64 64
  %11 = load ptr, ptr %10, align 8, !tbaa !128
  store ptr %11, ptr %9, align 8, !tbaa !128
  call void @llvm.memset.p0.i64(ptr noundef nonnull align 8 dereferenceable(24) %4, i8 0, i64 24, i1 false)
  invoke void @_ZNSt12_Destroy_auxILb0EE9__destroyIPN5folly6detail15BenchmarkResultEEEvT_S6_(ptr noundef null, ptr noundef null)
          to label %_ZSt8_DestroyIPN5folly6detail15BenchmarkResultES2_EvT_S4_RSaIT0_E.exit.i.i unwind label %18

_ZSt8_DestroyIPN5folly6detail15BenchmarkResultES2_EvT_S4_RSaIT0_E.exit.i.i: ; preds = %2
  %12 = load ptr, ptr %4, align 8, !tbaa !136
  %.not.i.i.i.i = icmp eq ptr %12, null
  br i1 %.not.i.i.i.i, label %_ZNSt6vectorIN5folly6detail15BenchmarkResultESaIS2_EED2Ev.exit.i, label %13

13:                                               ; preds = %_ZSt8_DestroyIPN5folly6detail15BenchmarkResultES2_EvT_S4_RSaIT0_E.exit.i.i
  %14 = load ptr, ptr %10, align 8, !tbaa !128
  %15 = ptrtoint ptr %14 to i64
  %16 = ptrtoint ptr %12 to i64
  %17 = sub i64 %15, %16
  call void @_ZdlPvm(ptr noundef nonnull %12, i64 noundef %17) #42
  br label %_ZNSt6vectorIN5folly6detail15BenchmarkResultESaIS2_EED2Ev.exit.i

18:                                               ; preds = %2
  %19 = landingpad { ptr, i32 }
          catch ptr null
  %20 = extractvalue { ptr, i32 } %19, 0
  call void @__clang_call_terminate(ptr %20) #44
  unreachable

_ZNSt6vectorIN5folly6detail15BenchmarkResultESaIS2_EED2Ev.exit.i: ; preds = %13, %_ZSt8_DestroyIPN5folly6detail15BenchmarkResultES2_EvT_S4_RSaIT0_E.exit.i.i
  %21 = getelementptr inbounds nuw i8, ptr %3, i64 16
  %22 = load ptr, ptr %21, align 8, !tbaa !242
  invoke void @_ZNSt8_Rb_treeINSt7__cxx1112basic_stringIcSt11char_traitsIcESaIcEEES5_St9_IdentityIS5_ESt4lessIS5_ESaIS5_EE8_M_eraseEPSt13_Rb_tree_nodeIS5_E(ptr noundef nonnull align 8 dereferenceable(72) %3, ptr noundef %22)
          to label %_ZNSt4pairISt3setINSt7__cxx1112basic_stringIcSt11char_traitsIcESaIcEEESt4lessIS6_ESaIS6_EESt6vectorIN5folly6detail15BenchmarkResultESaISE_EEED2Ev.exit unwind label %23

23:                                               ; preds = %_ZNSt6vectorIN5folly6detail15BenchmarkResultESaIS2_EED2Ev.exit.i
  %24 = landingpad { ptr, i32 }
          catch ptr null
  %25 = extractvalue { ptr, i32 } %24, 0
  call void @__clang_call_terminate(ptr %25) #44
  unreachable

_ZNSt4pairISt3setINSt7__cxx1112basic_stringIcSt11char_traitsIcESaIcEEESt4lessIS6_ESaIS6_EESt6vectorIN5folly6detail15BenchmarkResultESaISE_EEED2Ev.exit: ; preds = %_ZNSt6vectorIN5folly6detail15BenchmarkResultESaIS2_EED2Ev.exit.i
  call void @llvm.lifetime.end.p0(i64 72, ptr nonnull %3) #41
  ret void
}